target datalayout = "e-m:e-p270:32:32-p271:32:32-p272:64:64-i64:64-i128:128-f80:128-n8:16:32:64-S128"
target triple = "x86_64-pc-linux-gnu"

%struct.jit_State = type { %struct.GCtrace, ptr, ptr, ptr, ptr, ptr, ptr, i32, i32, i32, i8, i8, %struct.IRType1, i8, %struct.FoldState, ptr, i32, i32, i32, i32, i32, i32, i32, [1 x i32], [5 x %union.TValue], [3 x %union.TValue], ptr, i32, i32, i32, i32, ptr, ptr, i32, i32, i8, ptr, i32, i32, i16, [101 x i16], [258 x i32], [15 x i32], [16 x ptr], [64 x %struct.HotPenalty], i32, [16 x %struct.BPropEntry], i32, %struct.ScEvEntry, ptr, i32, i32, i32, ptr, i32, i32, ptr, ptr, ptr, i64, i64, %union.TValue, ptr, i32, i32 }
%struct.GCtrace = type { %struct.GCRef, i8, i8, i16, i32, i32, %struct.GCRef, ptr, i32, i32, ptr, ptr, %struct.GCRef, %struct.MRef, i32, i32, ptr, i32, i16, i16, i16, i16, i16, i16, i16, i8, i8, i8, i8 }
%struct.GCRef = type { i64 }
%struct.MRef = type { i64 }
%struct.IRType1 = type { i8 }
%struct.FoldState = type { %union.IRIns, [2 x %union.IRIns], [2 x %union.IRIns] }
%union.IRIns = type { %struct.GCRef }
%struct.HotPenalty = type { %struct.MRef, i16, i16 }
%struct.BPropEntry = type { i16, i16, i32 }
%struct.ScEvEntry = type { %struct.MRef, i16, i16, i16, i16, %struct.IRType1, i8 }
%union.TValue = type { i64 }

; Function Attrs: nounwind uwtable
define hidden void @lj_ir_growtop(ptr noundef %0) #3 {
  %2 = alloca ptr, align 8
  %3 = alloca ptr, align 8
  %4 = alloca i32, align 4
  store ptr %0, ptr %2, align 8, !tbaa !4
  call void @llvm.lifetime.start.p0(i64 8, ptr %3) #10
  %5 = load ptr, ptr %2, align 8, !tbaa !4
  %6 = getelementptr inbounds nuw %struct.jit_State, ptr %5, i32 0, i32 26
  %7 = load ptr, ptr %6, align 8, !tbaa !9
  %8 = load ptr, ptr %2, align 8, !tbaa !4
  %9 = getelementptr inbounds nuw %struct.jit_State, ptr %8, i32 0, i32 28
  %10 = load i32, ptr %9, align 4, !tbaa !29
  %11 = zext i32 %10 to i64
  %12 = getelementptr inbounds nuw %union.IRIns, ptr %7, i64 %11
  store ptr %12, ptr %3, align 8, !tbaa !30
  call void @llvm.lifetime.start.p0(i64 4, ptr %4) #10
  %13 = load ptr, ptr %2, align 8, !tbaa !4
  %14 = getelementptr inbounds nuw %struct.jit_State, ptr %13, i32 0, i32 27
  %15 = load i32, ptr %14, align 8, !tbaa !31
  %16 = load ptr, ptr %2, align 8, !tbaa !4
  %17 = getelementptr inbounds nuw %struct.jit_State, ptr %16, i32 0, i32 28
  %18 = load i32, ptr %17, align 4, !tbaa !29
  %19 = sub i32 %15, %18
  store i32 %19, ptr %4, align 4, !tbaa !32
  %20 = load i32, ptr %4, align 4, !tbaa !32
  %21 = icmp ne i32 %20, 0
  br i1 %21, label %22, label %43

22:                                               ; preds = %1
  %23 = load ptr, ptr %2, align 8, !tbaa !4
  %24 = getelementptr inbounds nuw %struct.jit_State, ptr %23, i32 0, i32 2
  %25 = load ptr, ptr %24, align 8, !tbaa !33
  %26 = load ptr, ptr %3, align 8, !tbaa !30
  %27 = load i32, ptr %4, align 4, !tbaa !32
  %28 = zext i32 %27 to i64
  %29 = mul i64 %28, 8
  %30 = load i32, ptr %4, align 4, !tbaa !32
  %31 = mul i32 2, %30
  %32 = zext i32 %31 to i64
  %33 = mul i64 %32, 8
  %34 = call ptr @lj_mem_realloc(ptr noundef %25, ptr noundef %26, i64 noundef %29, i64 noundef %33)
  store ptr %34, ptr %3, align 8, !tbaa !30
  %35 = load ptr, ptr %2, align 8, !tbaa !4
  %36 = getelementptr inbounds nuw %struct.jit_State, ptr %35, i32 0, i32 28
  %37 = load i32, ptr %36, align 4, !tbaa !29
  %38 = load i32, ptr %4, align 4, !tbaa !32
  %39 = mul i32 2, %38
  %40 = add i32 %37, %39
  %41 = load ptr, ptr %2, align 8, !tbaa !4
  %42 = getelementptr inbounds nuw %struct.jit_State, ptr %41, i32 0, i32 27
  store i32 %40, ptr %42, align 8, !tbaa !31
  br label %56

43:                                               ; preds = %1
  %44 = load ptr, ptr %2, align 8, !tbaa !4
  %45 = getelementptr inbounds nuw %struct.jit_State, ptr %44, i32 0, i32 2
  %46 = load ptr, ptr %45, align 8, !tbaa !33
  %47 = call ptr @lj_mem_realloc(ptr noundef %46, ptr noundef null, i64 noundef 0, i64 noundef 256)
  store ptr %47, ptr %3, align 8, !tbaa !30
  %48 = load ptr, ptr %2, align 8, !tbaa !4
  %49 = getelementptr inbounds nuw %struct.jit_State, ptr %48, i32 0, i32 28
  store i32 32760, ptr %49, align 4, !tbaa !29
  %50 = load ptr, ptr %2, align 8, !tbaa !4
  %51 = getelementptr inbounds nuw %struct.jit_State, ptr %50, i32 0, i32 28
  %52 = load i32, ptr %51, align 4, !tbaa !29
  %53 = add i32 %52, 32
  %54 = load ptr, ptr %2, align 8, !tbaa !4
  %55 = getelementptr inbounds nuw %struct.jit_State, ptr %54, i32 0, i32 27
  store i32 %53, ptr %55, align 8, !tbaa !31
  br label %56

56:                                               ; preds = %43, %22
  %57 = load ptr, ptr %3, align 8, !tbaa !30
  %58 = load ptr, ptr %2, align 8, !tbaa !4
  %59 = getelementptr inbounds nuw %struct.jit_State, ptr %58, i32 0, i32 28
  %60 = load i32, ptr %59, align 4, !tbaa !29
  %61 = zext i32 %60 to i64
  %62 = sub i64 0, %61
  %63 = getelementptr inbounds %union.IRIns, ptr %57, i64 %62
  %64 = load ptr, ptr %2, align 8, !tbaa !4
  %65 = getelementptr inbounds nuw %struct.jit_State, ptr %64, i32 0, i32 26
  store ptr %63, ptr %65, align 8, !tbaa !9
  %66 = load ptr, ptr %2, align 8, !tbaa !4
  %67 = getelementptr inbounds nuw %struct.jit_State, ptr %66, i32 0, i32 0
  %68 = getelementptr inbounds nuw %struct.GCtrace, ptr %67, i32 0, i32 7
  store ptr %63, ptr %68, align 8, !tbaa !34
  call void @llvm.lifetime.end.p0(i64 4, ptr %4) #10
  call void @llvm.lifetime.end.p0(i64 8, ptr %3) #10
  ret void
}