; Function Attrs: nounwind uwtable
define hidden void @lj_ir_growtop(ptr noundef captures(none) initializes((32, 40)) %0) local_unnamed_addr #6 {
  %2 = getelementptr inbounds nuw i8, ptr %0, i64 328
  %3 = getelementptr inbounds nuw i8, ptr %0, i64 340
  %4 = load i32, ptr %3, align 4, !tbaa !4
  %5 = getelementptr inbounds nuw i8, ptr %0, i64 336
  %6 = load i32, ptr %5, align 8, !tbaa !27
  %.not = icmp eq i32 %6, %4
  br i1 %.not, label %23, label %7

7:                                                ; preds = %1
  %8 = sub i32 %6, %4
  %9 = load ptr, ptr %2, align 8, !tbaa !28
  %10 = zext i32 %4 to i64
  %11 = getelementptr inbounds nuw %union.IRIns, ptr %9, i64 %10
  %12 = getelementptr inbounds nuw i8, ptr %0, i64 128
  %13 = load ptr, ptr %12, align 8, !tbaa !29
  %14 = zext i32 %8 to i64
  %15 = shl nuw nsw i64 %14, 3
  %16 = shl i32 %8, 1
  %17 = zext i32 %16 to i64
  %18 = shl nuw nsw i64 %17, 3
  %19 = tail call ptr @lj_mem_realloc(ptr noundef %13, ptr noundef %11, i64 noundef %15, i64 noundef %18) #13
  %20 = load i32, ptr %3, align 4, !tbaa !4
  %21 = add i32 %20, %16
  %22 = zext i32 %20 to i64
  br label %27

23:                                               ; preds = %1
  %24 = getelementptr inbounds nuw i8, ptr %0, i64 128
  %25 = load ptr, ptr %24, align 8, !tbaa !29
  %26 = tail call ptr @lj_mem_realloc(ptr noundef %25, ptr noundef null, i64 noundef 0, i64 noundef 256) #13
  store i32 32760, ptr %3, align 4, !tbaa !4
  br label %27

27:                                               ; preds = %23, %7
  %28 = phi i64 [ 32760, %23 ], [ %22, %7 ]
  %storemerge = phi i32 [ 32792, %23 ], [ %21, %7 ]
  %.0 = phi ptr [ %26, %23 ], [ %19, %7 ]
  store i32 %storemerge, ptr %5, align 8, !tbaa !27
  %29 = sub nsw i64 0, %28
  %30 = getelementptr inbounds %union.IRIns, ptr %.0, i64 %29
  store ptr %30, ptr %2, align 8, !tbaa !28
  %31 = getelementptr inbounds nuw i8, ptr %0, i64 32
  store ptr %30, ptr %31, align 8, !tbaa !30
  ret void
}